; Function Attrs: mustprogress uwtable
define noundef nonnull align 8 dereferenceable(64) ptr @_ZN6icu_7713LocaleUtility18initNameFromLocaleERKNS_6LocaleERNS_13UnicodeStringE(ptr noundef nonnull readonly align 8 captures(none) dereferenceable(217) %0, ptr noundef nonnull returned align 8 dereferenceable(64) %1) local_unnamed_addr #1 align 2 personality ptr @__gxx_personality_v0 {
  %3 = alloca %"class.icu_77::UnicodeString", align 8
  %4 = getelementptr inbounds nuw i8, ptr %0, i64 216
  %5 = load i8, ptr %4, align 8, !tbaa !24
  %.not = icmp eq i8 %5, 0
  br i1 %.not, label %7, label %6

6:                                                ; preds = %2
  tail call void @_ZN6icu_7713UnicodeString10setToBogusEv(ptr noundef nonnull align 8 dereferenceable(64) %1)
  br label %21

7:                                                ; preds = %2
  call void @llvm.lifetime.start.p0(i64 64, ptr nonnull %3) #12
  %8 = getelementptr inbounds nuw i8, ptr %0, i64 40
  %9 = load ptr, ptr %8, align 8, !tbaa !27
  call void @_ZN6icu_7713UnicodeStringC1EPKciNS0_10EInvariantE(ptr noundef nonnull align 8 dereferenceable(64) %3, ptr noundef %9, i32 noundef -1, i32 noundef 0)
  %10 = getelementptr inbounds nuw i8, ptr %3, i64 8
  %11 = load i16, ptr %10, align 8, !tbaa !15
  %12 = icmp slt i16 %11, 0
  %13 = ashr i16 %11, 5
  %14 = sext i16 %13 to i32
  %15 = getelementptr inbounds nuw i8, ptr %3, i64 12
  %16 = load i32, ptr %15, align 4
  %17 = select i1 %12, i32 %16, i32 %14
  %18 = invoke noundef nonnull align 8 dereferenceable(64) ptr @_ZN6icu_7713UnicodeString8doAppendERKS0_ii(ptr noundef nonnull align 8 dereferenceable(64) %1, ptr noundef nonnull align 8 dereferenceable(64) %3, i32 noundef 0, i32 noundef %17)
          to label %_ZN6icu_7713UnicodeString6appendERKS0_.exit unwind label %19

_ZN6icu_7713UnicodeString6appendERKS0_.exit:      ; preds = %7
  call void @_ZN6icu_7713UnicodeStringD1Ev(ptr noundef nonnull align 8 dereferenceable(64) %3) #12
  call void @llvm.lifetime.end.p0(i64 64, ptr nonnull %3) #12
  br label %21

19:                                               ; preds = %7
  %20 = landingpad { ptr, i32 }
          cleanup
  call void @_ZN6icu_7713UnicodeStringD1Ev(ptr noundef nonnull align 8 dereferenceable(64) %3) #12
  call void @llvm.lifetime.end.p0(i64 64, ptr nonnull %3) #12
  resume { ptr, i32 } %20

21:                                               ; preds = %_ZN6icu_7713UnicodeString6appendERKS0_.exit, %6
  ret ptr %1
}